; Function Attrs: nounwind uwtable
define i32 @kinLsATimes(ptr noundef %0, ptr noundef %1, ptr noundef %2) #0 {
  %4 = icmp eq ptr %0, null
  br i1 %4, label %5, label %6

5:                                                ; preds = %3
  tail call void (ptr, i32, i32, ptr, ptr, ptr, ...) @KINProcessError(ptr noundef null, i32 noundef -1, i32 noundef 1399, ptr noundef nonnull @__func__.kinLsATimes, ptr noundef nonnull @.str, ptr noundef nonnull @.str.1) #13
  br label %kinLs_AccessLMem.exit.thread

6:                                                ; preds = %3
  %7 = getelementptr inbounds nuw i8, ptr %0, i64 584
  %8 = load ptr, ptr %7, align 8, !tbaa !55
  %9 = icmp eq ptr %8, null
  br i1 %9, label %10, label %kinLs_AccessLMem.exit

10:                                               ; preds = %6
  tail call void (ptr, i32, i32, ptr, ptr, ptr, ...) @KINProcessError(ptr noundef nonnull %0, i32 noundef -2, i32 noundef 1406, ptr noundef nonnull @__func__.kinLsATimes, ptr noundef nonnull @.str, ptr noundef nonnull @.str.26) #13
  br label %kinLs_AccessLMem.exit.thread

kinLs_AccessLMem.exit:                            ; preds = %6
  %11 = getelementptr inbounds nuw i8, ptr %8, i64 160
  %12 = load ptr, ptr %11, align 8, !tbaa !45
  %13 = getelementptr inbounds nuw i8, ptr %0, i64 264
  %14 = load ptr, ptr %13, align 8, !tbaa !72
  %15 = getelementptr inbounds nuw i8, ptr %8, i64 112
  %16 = getelementptr inbounds nuw i8, ptr %8, i64 176
  %17 = load ptr, ptr %16, align 8, !tbaa !48
  %18 = tail call i32 %12(ptr noundef %1, ptr noundef %2, ptr noundef %14, ptr noundef nonnull %15, ptr noundef %17) #13
  %19 = getelementptr inbounds nuw i8, ptr %8, i64 104
  %20 = load i64, ptr %19, align 8, !tbaa !91
  %21 = add nsw i64 %20, 1
  store i64 %21, ptr %19, align 8, !tbaa !91
  br label %kinLs_AccessLMem.exit.thread

kinLs_AccessLMem.exit.thread:                     ; preds = %10, %5, %kinLs_AccessLMem.exit
  %.0 = phi i32 [ %18, %kinLs_AccessLMem.exit ], [ -2, %10 ], [ -1, %5 ]
  ret i32 %.0
}